
;CodeVisionAVR C Compiler V3.10 Advanced
;(C) Copyright 1998-2014 Pavel Haiduc, HP InfoTech s.r.l.
;http://www.hpinfotech.com

;Build configuration    : Debug
;Chip type              : ATmega8A
;Program type           : Application
;Clock frequency        : 8,000000 MHz
;Memory model           : Small
;Optimize for           : Size
;(s)printf features     : int, width
;(s)scanf features      : int, width
;External RAM size      : 0
;Data Stack size        : 256 byte(s)
;Heap size              : 0 byte(s)
;Promote 'char' to 'int': Yes
;'char' is unsigned     : Yes
;8 bit enums            : Yes
;Global 'const' stored in FLASH: No
;Enhanced function parameter passing: Yes
;Enhanced core instructions: On
;Automatic register allocation for global variables: On
;Smart register allocation: On

	#define _MODEL_SMALL_

	#pragma AVRPART ADMIN PART_NAME ATmega8A
	#pragma AVRPART MEMORY PROG_FLASH 8192
	#pragma AVRPART MEMORY EEPROM 512
	#pragma AVRPART MEMORY INT_SRAM SIZE 1024
	#pragma AVRPART MEMORY INT_SRAM START_ADDR 0x60

	.LISTMAC
	.EQU UDRE=0x5
	.EQU RXC=0x7
	.EQU USR=0xB
	.EQU UDR=0xC
	.EQU SPSR=0xE
	.EQU SPDR=0xF
	.EQU EERE=0x0
	.EQU EEWE=0x1
	.EQU EEMWE=0x2
	.EQU EECR=0x1C
	.EQU EEDR=0x1D
	.EQU EEARL=0x1E
	.EQU EEARH=0x1F
	.EQU WDTCR=0x21
	.EQU MCUCR=0x35
	.EQU GICR=0x3B
	.EQU SPL=0x3D
	.EQU SPH=0x3E
	.EQU SREG=0x3F

	.DEF R0X0=R0
	.DEF R0X1=R1
	.DEF R0X2=R2
	.DEF R0X3=R3
	.DEF R0X4=R4
	.DEF R0X5=R5
	.DEF R0X6=R6
	.DEF R0X7=R7
	.DEF R0X8=R8
	.DEF R0X9=R9
	.DEF R0XA=R10
	.DEF R0XB=R11
	.DEF R0XC=R12
	.DEF R0XD=R13
	.DEF R0XE=R14
	.DEF R0XF=R15
	.DEF R0X10=R16
	.DEF R0X11=R17
	.DEF R0X12=R18
	.DEF R0X13=R19
	.DEF R0X14=R20
	.DEF R0X15=R21
	.DEF R0X16=R22
	.DEF R0X17=R23
	.DEF R0X18=R24
	.DEF R0X19=R25
	.DEF R0X1A=R26
	.DEF R0X1B=R27
	.DEF R0X1C=R28
	.DEF R0X1D=R29
	.DEF R0X1E=R30
	.DEF R0X1F=R31

	.EQU __SRAM_START=0x0060
	.EQU __SRAM_END=0x045F
	.EQU __DSTACK_SIZE=0x0100
	.EQU __HEAP_SIZE=0x0000
	.EQU __CLEAR_SRAM_SIZE=__SRAM_END-__SRAM_START+1

	.MACRO __CPD1N
	CPI  R30,LOW(@0)
	LDI  R26,HIGH(@0)
	CPC  R31,R26
	LDI  R26,BYTE3(@0)
	CPC  R22,R26
	LDI  R26,BYTE4(@0)
	CPC  R23,R26
	.ENDM

	.MACRO __CPD2N
	CPI  R26,LOW(@0)
	LDI  R30,HIGH(@0)
	CPC  R27,R30
	LDI  R30,BYTE3(@0)
	CPC  R24,R30
	LDI  R30,BYTE4(@0)
	CPC  R25,R30
	.ENDM

	.MACRO __CPWRR
	CP   R@0,R@2
	CPC  R@1,R@3
	.ENDM

	.MACRO __CPWRN
	CPI  R@0,LOW(@2)
	LDI  R30,HIGH(@2)
	CPC  R@1,R30
	.ENDM

	.MACRO __ADDB1MN
	SUBI R30,LOW(-@0-(@1))
	.ENDM

	.MACRO __ADDB2MN
	SUBI R26,LOW(-@0-(@1))
	.ENDM

	.MACRO __ADDW1MN
	SUBI R30,LOW(-@0-(@1))
	SBCI R31,HIGH(-@0-(@1))
	.ENDM

	.MACRO __ADDW2MN
	SUBI R26,LOW(-@0-(@1))
	SBCI R27,HIGH(-@0-(@1))
	.ENDM

	.MACRO __ADDW1FN
	SUBI R30,LOW(-2*@0-(@1))
	SBCI R31,HIGH(-2*@0-(@1))
	.ENDM

	.MACRO __ADDD1FN
	SUBI R30,LOW(-2*@0-(@1))
	SBCI R31,HIGH(-2*@0-(@1))
	SBCI R22,BYTE3(-2*@0-(@1))
	.ENDM

	.MACRO __ADDD1N
	SUBI R30,LOW(-@0)
	SBCI R31,HIGH(-@0)
	SBCI R22,BYTE3(-@0)
	SBCI R23,BYTE4(-@0)
	.ENDM

	.MACRO __ADDD2N
	SUBI R26,LOW(-@0)
	SBCI R27,HIGH(-@0)
	SBCI R24,BYTE3(-@0)
	SBCI R25,BYTE4(-@0)
	.ENDM

	.MACRO __SUBD1N
	SUBI R30,LOW(@0)
	SBCI R31,HIGH(@0)
	SBCI R22,BYTE3(@0)
	SBCI R23,BYTE4(@0)
	.ENDM

	.MACRO __SUBD2N
	SUBI R26,LOW(@0)
	SBCI R27,HIGH(@0)
	SBCI R24,BYTE3(@0)
	SBCI R25,BYTE4(@0)
	.ENDM

	.MACRO __ANDBMNN
	LDS  R30,@0+(@1)
	ANDI R30,LOW(@2)
	STS  @0+(@1),R30
	.ENDM

	.MACRO __ANDWMNN
	LDS  R30,@0+(@1)
	ANDI R30,LOW(@2)
	STS  @0+(@1),R30
	LDS  R30,@0+(@1)+1
	ANDI R30,HIGH(@2)
	STS  @0+(@1)+1,R30
	.ENDM

	.MACRO __ANDD1N
	ANDI R30,LOW(@0)
	ANDI R31,HIGH(@0)
	ANDI R22,BYTE3(@0)
	ANDI R23,BYTE4(@0)
	.ENDM

	.MACRO __ANDD2N
	ANDI R26,LOW(@0)
	ANDI R27,HIGH(@0)
	ANDI R24,BYTE3(@0)
	ANDI R25,BYTE4(@0)
	.ENDM

	.MACRO __ORBMNN
	LDS  R30,@0+(@1)
	ORI  R30,LOW(@2)
	STS  @0+(@1),R30
	.ENDM

	.MACRO __ORWMNN
	LDS  R30,@0+(@1)
	ORI  R30,LOW(@2)
	STS  @0+(@1),R30
	LDS  R30,@0+(@1)+1
	ORI  R30,HIGH(@2)
	STS  @0+(@1)+1,R30
	.ENDM

	.MACRO __ORD1N
	ORI  R30,LOW(@0)
	ORI  R31,HIGH(@0)
	ORI  R22,BYTE3(@0)
	ORI  R23,BYTE4(@0)
	.ENDM

	.MACRO __ORD2N
	ORI  R26,LOW(@0)
	ORI  R27,HIGH(@0)
	ORI  R24,BYTE3(@0)
	ORI  R25,BYTE4(@0)
	.ENDM

	.MACRO __DELAY_USB
	LDI  R24,LOW(@0)
__DELAY_USB_LOOP:
	DEC  R24
	BRNE __DELAY_USB_LOOP
	.ENDM

	.MACRO __DELAY_USW
	LDI  R24,LOW(@0)
	LDI  R25,HIGH(@0)
__DELAY_USW_LOOP:
	SBIW R24,1
	BRNE __DELAY_USW_LOOP
	.ENDM

	.MACRO __GETD1S
	LDD  R30,Y+@0
	LDD  R31,Y+@0+1
	LDD  R22,Y+@0+2
	LDD  R23,Y+@0+3
	.ENDM

	.MACRO __GETD2S
	LDD  R26,Y+@0
	LDD  R27,Y+@0+1
	LDD  R24,Y+@0+2
	LDD  R25,Y+@0+3
	.ENDM

	.MACRO __PUTD1S
	STD  Y+@0,R30
	STD  Y+@0+1,R31
	STD  Y+@0+2,R22
	STD  Y+@0+3,R23
	.ENDM

	.MACRO __PUTD2S
	STD  Y+@0,R26
	STD  Y+@0+1,R27
	STD  Y+@0+2,R24
	STD  Y+@0+3,R25
	.ENDM

	.MACRO __PUTDZ2
	STD  Z+@0,R26
	STD  Z+@0+1,R27
	STD  Z+@0+2,R24
	STD  Z+@0+3,R25
	.ENDM

	.MACRO __CLRD1S
	STD  Y+@0,R30
	STD  Y+@0+1,R30
	STD  Y+@0+2,R30
	STD  Y+@0+3,R30
	.ENDM

	.MACRO __POINTB1MN
	LDI  R30,LOW(@0+(@1))
	.ENDM

	.MACRO __POINTW1MN
	LDI  R30,LOW(@0+(@1))
	LDI  R31,HIGH(@0+(@1))
	.ENDM

	.MACRO __POINTD1M
	LDI  R30,LOW(@0)
	LDI  R31,HIGH(@0)
	LDI  R22,BYTE3(@0)
	LDI  R23,BYTE4(@0)
	.ENDM

	.MACRO __POINTW1FN
	LDI  R30,LOW(2*@0+(@1))
	LDI  R31,HIGH(2*@0+(@1))
	.ENDM

	.MACRO __POINTD1FN
	LDI  R30,LOW(2*@0+(@1))
	LDI  R31,HIGH(2*@0+(@1))
	LDI  R22,BYTE3(2*@0+(@1))
	LDI  R23,BYTE4(2*@0+(@1))
	.ENDM

	.MACRO __POINTB2MN
	LDI  R26,LOW(@0+(@1))
	.ENDM

	.MACRO __POINTW2MN
	LDI  R26,LOW(@0+(@1))
	LDI  R27,HIGH(@0+(@1))
	.ENDM

	.MACRO __POINTW2FN
	LDI  R26,LOW(2*@0+(@1))
	LDI  R27,HIGH(2*@0+(@1))
	.ENDM

	.MACRO __POINTD2FN
	LDI  R26,LOW(2*@0+(@1))
	LDI  R27,HIGH(2*@0+(@1))
	LDI  R24,BYTE3(2*@0+(@1))
	LDI  R25,BYTE4(2*@0+(@1))
	.ENDM

	.MACRO __POINTBRM
	LDI  R@0,LOW(@1)
	.ENDM

	.MACRO __POINTWRM
	LDI  R@0,LOW(@2)
	LDI  R@1,HIGH(@2)
	.ENDM

	.MACRO __POINTBRMN
	LDI  R@0,LOW(@1+(@2))
	.ENDM

	.MACRO __POINTWRMN
	LDI  R@0,LOW(@2+(@3))
	LDI  R@1,HIGH(@2+(@3))
	.ENDM

	.MACRO __POINTWRFN
	LDI  R@0,LOW(@2*2+(@3))
	LDI  R@1,HIGH(@2*2+(@3))
	.ENDM

	.MACRO __GETD1N
	LDI  R30,LOW(@0)
	LDI  R31,HIGH(@0)
	LDI  R22,BYTE3(@0)
	LDI  R23,BYTE4(@0)
	.ENDM

	.MACRO __GETD2N
	LDI  R26,LOW(@0)
	LDI  R27,HIGH(@0)
	LDI  R24,BYTE3(@0)
	LDI  R25,BYTE4(@0)
	.ENDM

	.MACRO __GETB1MN
	LDS  R30,@0+(@1)
	.ENDM

	.MACRO __GETB1HMN
	LDS  R31,@0+(@1)
	.ENDM

	.MACRO __GETW1MN
	LDS  R30,@0+(@1)
	LDS  R31,@0+(@1)+1
	.ENDM

	.MACRO __GETD1MN
	LDS  R30,@0+(@1)
	LDS  R31,@0+(@1)+1
	LDS  R22,@0+(@1)+2
	LDS  R23,@0+(@1)+3
	.ENDM

	.MACRO __GETBRMN
	LDS  R@0,@1+(@2)
	.ENDM

	.MACRO __GETWRMN
	LDS  R@0,@2+(@3)
	LDS  R@1,@2+(@3)+1
	.ENDM

	.MACRO __GETWRZ
	LDD  R@0,Z+@2
	LDD  R@1,Z+@2+1
	.ENDM

	.MACRO __GETD2Z
	LDD  R26,Z+@0
	LDD  R27,Z+@0+1
	LDD  R24,Z+@0+2
	LDD  R25,Z+@0+3
	.ENDM

	.MACRO __GETB2MN
	LDS  R26,@0+(@1)
	.ENDM

	.MACRO __GETW2MN
	LDS  R26,@0+(@1)
	LDS  R27,@0+(@1)+1
	.ENDM

	.MACRO __GETD2MN
	LDS  R26,@0+(@1)
	LDS  R27,@0+(@1)+1
	LDS  R24,@0+(@1)+2
	LDS  R25,@0+(@1)+3
	.ENDM

	.MACRO __PUTB1MN
	STS  @0+(@1),R30
	.ENDM

	.MACRO __PUTW1MN
	STS  @0+(@1),R30
	STS  @0+(@1)+1,R31
	.ENDM

	.MACRO __PUTD1MN
	STS  @0+(@1),R30
	STS  @0+(@1)+1,R31
	STS  @0+(@1)+2,R22
	STS  @0+(@1)+3,R23
	.ENDM

	.MACRO __PUTB1EN
	LDI  R26,LOW(@0+(@1))
	LDI  R27,HIGH(@0+(@1))
	RCALL __EEPROMWRB
	.ENDM

	.MACRO __PUTW1EN
	LDI  R26,LOW(@0+(@1))
	LDI  R27,HIGH(@0+(@1))
	RCALL __EEPROMWRW
	.ENDM

	.MACRO __PUTD1EN
	LDI  R26,LOW(@0+(@1))
	LDI  R27,HIGH(@0+(@1))
	RCALL __EEPROMWRD
	.ENDM

	.MACRO __PUTBR0MN
	STS  @0+(@1),R0
	.ENDM

	.MACRO __PUTBMRN
	STS  @0+(@1),R@2
	.ENDM

	.MACRO __PUTWMRN
	STS  @0+(@1),R@2
	STS  @0+(@1)+1,R@3
	.ENDM

	.MACRO __PUTBZR
	STD  Z+@1,R@0
	.ENDM

	.MACRO __PUTWZR
	STD  Z+@2,R@0
	STD  Z+@2+1,R@1
	.ENDM

	.MACRO __GETW1R
	MOV  R30,R@0
	MOV  R31,R@1
	.ENDM

	.MACRO __GETW2R
	MOV  R26,R@0
	MOV  R27,R@1
	.ENDM

	.MACRO __GETWRN
	LDI  R@0,LOW(@2)
	LDI  R@1,HIGH(@2)
	.ENDM

	.MACRO __PUTW1R
	MOV  R@0,R30
	MOV  R@1,R31
	.ENDM

	.MACRO __PUTW2R
	MOV  R@0,R26
	MOV  R@1,R27
	.ENDM

	.MACRO __ADDWRN
	SUBI R@0,LOW(-@2)
	SBCI R@1,HIGH(-@2)
	.ENDM

	.MACRO __ADDWRR
	ADD  R@0,R@2
	ADC  R@1,R@3
	.ENDM

	.MACRO __SUBWRN
	SUBI R@0,LOW(@2)
	SBCI R@1,HIGH(@2)
	.ENDM

	.MACRO __SUBWRR
	SUB  R@0,R@2
	SBC  R@1,R@3
	.ENDM

	.MACRO __ANDWRN
	ANDI R@0,LOW(@2)
	ANDI R@1,HIGH(@2)
	.ENDM

	.MACRO __ANDWRR
	AND  R@0,R@2
	AND  R@1,R@3
	.ENDM

	.MACRO __ORWRN
	ORI  R@0,LOW(@2)
	ORI  R@1,HIGH(@2)
	.ENDM

	.MACRO __ORWRR
	OR   R@0,R@2
	OR   R@1,R@3
	.ENDM

	.MACRO __EORWRR
	EOR  R@0,R@2
	EOR  R@1,R@3
	.ENDM

	.MACRO __GETWRS
	LDD  R@0,Y+@2
	LDD  R@1,Y+@2+1
	.ENDM

	.MACRO __PUTBSR
	STD  Y+@1,R@0
	.ENDM

	.MACRO __PUTWSR
	STD  Y+@2,R@0
	STD  Y+@2+1,R@1
	.ENDM

	.MACRO __MOVEWRR
	MOV  R@0,R@2
	MOV  R@1,R@3
	.ENDM

	.MACRO __INWR
	IN   R@0,@2
	IN   R@1,@2+1
	.ENDM

	.MACRO __OUTWR
	OUT  @2+1,R@1
	OUT  @2,R@0
	.ENDM

	.MACRO __CALL1MN
	LDS  R30,@0+(@1)
	LDS  R31,@0+(@1)+1
	ICALL
	.ENDM

	.MACRO __CALL1FN
	LDI  R30,LOW(2*@0+(@1))
	LDI  R31,HIGH(2*@0+(@1))
	RCALL __GETW1PF
	ICALL
	.ENDM

	.MACRO __CALL2EN
	PUSH R26
	PUSH R27
	LDI  R26,LOW(@0+(@1))
	LDI  R27,HIGH(@0+(@1))
	RCALL __EEPROMRDW
	POP  R27
	POP  R26
	ICALL
	.ENDM

	.MACRO __CALL2EX
	SUBI R26,LOW(-@0)
	SBCI R27,HIGH(-@0)
	RCALL __EEPROMRDD
	ICALL
	.ENDM

	.MACRO __GETW1STACK
	IN   R30,SPL
	IN   R31,SPH
	ADIW R30,@0+1
	LD   R0,Z+
	LD   R31,Z
	MOV  R30,R0
	.ENDM

	.MACRO __GETD1STACK
	IN   R30,SPL
	IN   R31,SPH
	ADIW R30,@0+1
	LD   R0,Z+
	LD   R1,Z+
	LD   R22,Z
	MOVW R30,R0
	.ENDM

	.MACRO __NBST
	BST  R@0,@1
	IN   R30,SREG
	LDI  R31,0x40
	EOR  R30,R31
	OUT  SREG,R30
	.ENDM


	.MACRO __PUTB1SN
	LDD  R26,Y+@0
	LDD  R27,Y+@0+1
	SUBI R26,LOW(-@1)
	SBCI R27,HIGH(-@1)
	ST   X,R30
	.ENDM

	.MACRO __PUTW1SN
	LDD  R26,Y+@0
	LDD  R27,Y+@0+1
	SUBI R26,LOW(-@1)
	SBCI R27,HIGH(-@1)
	ST   X+,R30
	ST   X,R31
	.ENDM

	.MACRO __PUTD1SN
	LDD  R26,Y+@0
	LDD  R27,Y+@0+1
	SUBI R26,LOW(-@1)
	SBCI R27,HIGH(-@1)
	RCALL __PUTDP1
	.ENDM

	.MACRO __PUTB1SNS
	LDD  R26,Y+@0
	LDD  R27,Y+@0+1
	ADIW R26,@1
	ST   X,R30
	.ENDM

	.MACRO __PUTW1SNS
	LDD  R26,Y+@0
	LDD  R27,Y+@0+1
	ADIW R26,@1
	ST   X+,R30
	ST   X,R31
	.ENDM

	.MACRO __PUTD1SNS
	LDD  R26,Y+@0
	LDD  R27,Y+@0+1
	ADIW R26,@1
	RCALL __PUTDP1
	.ENDM

	.MACRO __PUTB1PMN
	LDS  R26,@0
	LDS  R27,@0+1
	SUBI R26,LOW(-@1)
	SBCI R27,HIGH(-@1)
	ST   X,R30
	.ENDM

	.MACRO __PUTW1PMN
	LDS  R26,@0
	LDS  R27,@0+1
	SUBI R26,LOW(-@1)
	SBCI R27,HIGH(-@1)
	ST   X+,R30
	ST   X,R31
	.ENDM

	.MACRO __PUTD1PMN
	LDS  R26,@0
	LDS  R27,@0+1
	SUBI R26,LOW(-@1)
	SBCI R27,HIGH(-@1)
	RCALL __PUTDP1
	.ENDM

	.MACRO __PUTB1PMNS
	LDS  R26,@0
	LDS  R27,@0+1
	ADIW R26,@1
	ST   X,R30
	.ENDM

	.MACRO __PUTW1PMNS
	LDS  R26,@0
	LDS  R27,@0+1
	ADIW R26,@1
	ST   X+,R30
	ST   X,R31
	.ENDM

	.MACRO __PUTD1PMNS
	LDS  R26,@0
	LDS  R27,@0+1
	ADIW R26,@1
	RCALL __PUTDP1
	.ENDM

	.MACRO __PUTB1RN
	MOVW R26,R@0
	SUBI R26,LOW(-@1)
	SBCI R27,HIGH(-@1)
	ST   X,R30
	.ENDM

	.MACRO __PUTW1RN
	MOVW R26,R@0
	SUBI R26,LOW(-@1)
	SBCI R27,HIGH(-@1)
	ST   X+,R30
	ST   X,R31
	.ENDM

	.MACRO __PUTD1RN
	MOVW R26,R@0
	SUBI R26,LOW(-@1)
	SBCI R27,HIGH(-@1)
	RCALL __PUTDP1
	.ENDM

	.MACRO __PUTB1RNS
	MOVW R26,R@0
	ADIW R26,@1
	ST   X,R30
	.ENDM

	.MACRO __PUTW1RNS
	MOVW R26,R@0
	ADIW R26,@1
	ST   X+,R30
	ST   X,R31
	.ENDM

	.MACRO __PUTD1RNS
	MOVW R26,R@0
	ADIW R26,@1
	RCALL __PUTDP1
	.ENDM

	.MACRO __PUTB1RON
	MOV  R26,R@0
	MOV  R27,R@1
	SUBI R26,LOW(-@2)
	SBCI R27,HIGH(-@2)
	ST   X,R30
	.ENDM

	.MACRO __PUTW1RON
	MOV  R26,R@0
	MOV  R27,R@1
	SUBI R26,LOW(-@2)
	SBCI R27,HIGH(-@2)
	ST   X+,R30
	ST   X,R31
	.ENDM

	.MACRO __PUTD1RON
	MOV  R26,R@0
	MOV  R27,R@1
	SUBI R26,LOW(-@2)
	SBCI R27,HIGH(-@2)
	RCALL __PUTDP1
	.ENDM

	.MACRO __PUTB1RONS
	MOV  R26,R@0
	MOV  R27,R@1
	ADIW R26,@2
	ST   X,R30
	.ENDM

	.MACRO __PUTW1RONS
	MOV  R26,R@0
	MOV  R27,R@1
	ADIW R26,@2
	ST   X+,R30
	ST   X,R31
	.ENDM

	.MACRO __PUTD1RONS
	MOV  R26,R@0
	MOV  R27,R@1
	ADIW R26,@2
	RCALL __PUTDP1
	.ENDM


	.MACRO __GETB1SX
	MOVW R30,R28
	SUBI R30,LOW(-@0)
	SBCI R31,HIGH(-@0)
	LD   R30,Z
	.ENDM

	.MACRO __GETB1HSX
	MOVW R30,R28
	SUBI R30,LOW(-@0)
	SBCI R31,HIGH(-@0)
	LD   R31,Z
	.ENDM

	.MACRO __GETW1SX
	MOVW R30,R28
	SUBI R30,LOW(-@0)
	SBCI R31,HIGH(-@0)
	LD   R0,Z+
	LD   R31,Z
	MOV  R30,R0
	.ENDM

	.MACRO __GETD1SX
	MOVW R30,R28
	SUBI R30,LOW(-@0)
	SBCI R31,HIGH(-@0)
	LD   R0,Z+
	LD   R1,Z+
	LD   R22,Z+
	LD   R23,Z
	MOVW R30,R0
	.ENDM

	.MACRO __GETB2SX
	MOVW R26,R28
	SUBI R26,LOW(-@0)
	SBCI R27,HIGH(-@0)
	LD   R26,X
	.ENDM

	.MACRO __GETW2SX
	MOVW R26,R28
	SUBI R26,LOW(-@0)
	SBCI R27,HIGH(-@0)
	LD   R0,X+
	LD   R27,X
	MOV  R26,R0
	.ENDM

	.MACRO __GETD2SX
	MOVW R26,R28
	SUBI R26,LOW(-@0)
	SBCI R27,HIGH(-@0)
	LD   R0,X+
	LD   R1,X+
	LD   R24,X+
	LD   R25,X
	MOVW R26,R0
	.ENDM

	.MACRO __GETBRSX
	MOVW R30,R28
	SUBI R30,LOW(-@1)
	SBCI R31,HIGH(-@1)
	LD   R@0,Z
	.ENDM

	.MACRO __GETWRSX
	MOVW R30,R28
	SUBI R30,LOW(-@2)
	SBCI R31,HIGH(-@2)
	LD   R@0,Z+
	LD   R@1,Z
	.ENDM

	.MACRO __GETBRSX2
	MOVW R26,R28
	SUBI R26,LOW(-@1)
	SBCI R27,HIGH(-@1)
	LD   R@0,X
	.ENDM

	.MACRO __GETWRSX2
	MOVW R26,R28
	SUBI R26,LOW(-@2)
	SBCI R27,HIGH(-@2)
	LD   R@0,X+
	LD   R@1,X
	.ENDM

	.MACRO __LSLW8SX
	MOVW R30,R28
	SUBI R30,LOW(-@0)
	SBCI R31,HIGH(-@0)
	LD   R31,Z
	CLR  R30
	.ENDM

	.MACRO __PUTB1SX
	MOVW R26,R28
	SUBI R26,LOW(-@0)
	SBCI R27,HIGH(-@0)
	ST   X,R30
	.ENDM

	.MACRO __PUTW1SX
	MOVW R26,R28
	SUBI R26,LOW(-@0)
	SBCI R27,HIGH(-@0)
	ST   X+,R30
	ST   X,R31
	.ENDM

	.MACRO __PUTD1SX
	MOVW R26,R28
	SUBI R26,LOW(-@0)
	SBCI R27,HIGH(-@0)
	ST   X+,R30
	ST   X+,R31
	ST   X+,R22
	ST   X,R23
	.ENDM

	.MACRO __CLRW1SX
	MOVW R26,R28
	SUBI R26,LOW(-@0)
	SBCI R27,HIGH(-@0)
	ST   X+,R30
	ST   X,R30
	.ENDM

	.MACRO __CLRD1SX
	MOVW R26,R28
	SUBI R26,LOW(-@0)
	SBCI R27,HIGH(-@0)
	ST   X+,R30
	ST   X+,R30
	ST   X+,R30
	ST   X,R30
	.ENDM

	.MACRO __PUTB2SX
	MOVW R30,R28
	SUBI R30,LOW(-@0)
	SBCI R31,HIGH(-@0)
	ST   Z,R26
	.ENDM

	.MACRO __PUTW2SX
	MOVW R30,R28
	SUBI R30,LOW(-@0)
	SBCI R31,HIGH(-@0)
	ST   Z+,R26
	ST   Z,R27
	.ENDM

	.MACRO __PUTD2SX
	MOVW R30,R28
	SUBI R30,LOW(-@0)
	SBCI R31,HIGH(-@0)
	ST   Z+,R26
	ST   Z+,R27
	ST   Z+,R24
	ST   Z,R25
	.ENDM

	.MACRO __PUTBSRX
	MOVW R30,R28
	SUBI R30,LOW(-@1)
	SBCI R31,HIGH(-@1)
	ST   Z,R@0
	.ENDM

	.MACRO __PUTWSRX
	MOVW R30,R28
	SUBI R30,LOW(-@2)
	SBCI R31,HIGH(-@2)
	ST   Z+,R@0
	ST   Z,R@1
	.ENDM

	.MACRO __PUTB1SNX
	MOVW R26,R28
	SUBI R26,LOW(-@0)
	SBCI R27,HIGH(-@0)
	LD   R0,X+
	LD   R27,X
	MOV  R26,R0
	SUBI R26,LOW(-@1)
	SBCI R27,HIGH(-@1)
	ST   X,R30
	.ENDM

	.MACRO __PUTW1SNX
	MOVW R26,R28
	SUBI R26,LOW(-@0)
	SBCI R27,HIGH(-@0)
	LD   R0,X+
	LD   R27,X
	MOV  R26,R0
	SUBI R26,LOW(-@1)
	SBCI R27,HIGH(-@1)
	ST   X+,R30
	ST   X,R31
	.ENDM

	.MACRO __PUTD1SNX
	MOVW R26,R28
	SUBI R26,LOW(-@0)
	SBCI R27,HIGH(-@0)
	LD   R0,X+
	LD   R27,X
	MOV  R26,R0
	SUBI R26,LOW(-@1)
	SBCI R27,HIGH(-@1)
	ST   X+,R30
	ST   X+,R31
	ST   X+,R22
	ST   X,R23
	.ENDM

	.MACRO __MULBRR
	MULS R@0,R@1
	MOVW R30,R0
	.ENDM

	.MACRO __MULBRRU
	MUL  R@0,R@1
	MOVW R30,R0
	.ENDM

	.MACRO __MULBRR0
	MULS R@0,R@1
	.ENDM

	.MACRO __MULBRRU0
	MUL  R@0,R@1
	.ENDM

	.MACRO __MULBNWRU
	LDI  R26,@2
	MUL  R26,R@0
	MOVW R30,R0
	MUL  R26,R@1
	ADD  R31,R0
	.ENDM

;NAME DEFINITIONS FOR GLOBAL VARIABLES ALLOCATED TO REGISTERS
	.DEF _gisteresis=R4
	.DEF _gisteresis_msb=R5
	.DEF _temper=R6
	.DEF _temper_msb=R7

	.CSEG
	.ORG 0x00

;START OF CODE MARKER
__START_OF_CODE:

;INTERRUPT VECTORS
	RJMP __RESET
	RJMP 0x00
	RJMP 0x00
	RJMP 0x00
	RJMP 0x00
	RJMP 0x00
	RJMP 0x00
	RJMP 0x00
	RJMP 0x00
	RJMP 0x00
	RJMP 0x00
	RJMP 0x00
	RJMP 0x00
	RJMP 0x00
	RJMP 0x00
	RJMP 0x00
	RJMP 0x00
	RJMP 0x00
	RJMP 0x00

_conv_delay_G100:
	.DB  0x64,0x0,0xC8,0x0,0x90,0x1,0x20,0x3
_bit_mask_G100:
	.DB  0xF8,0xFF,0xFC,0xFF,0xFE,0xFF,0xFF,0xFF

;GLOBAL REGISTER VARIABLES INITIALIZATION
__REG_VARS:
	.DB  0x1,0x0,0x0,0x0


__GLOBAL_INI_TBL:
	.DW  0x04
	.DW  0x04
	.DW  __REG_VARS*2

_0xFFFFFFFF:
	.DW  0

#define __GLOBAL_INI_TBL_PRESENT 1

__RESET:
	CLI
	CLR  R30
	OUT  EECR,R30

;INTERRUPT VECTORS ARE PLACED
;AT THE START OF FLASH
	LDI  R31,1
	OUT  GICR,R31
	OUT  GICR,R30
	OUT  MCUCR,R30

;CLEAR R2-R14
	LDI  R24,(14-2)+1
	LDI  R26,2
	CLR  R27
__CLEAR_REG:
	ST   X+,R30
	DEC  R24
	BRNE __CLEAR_REG

;CLEAR SRAM
	LDI  R24,LOW(__CLEAR_SRAM_SIZE)
	LDI  R25,HIGH(__CLEAR_SRAM_SIZE)
	LDI  R26,__SRAM_START
__CLEAR_SRAM:
	ST   X+,R30
	SBIW R24,1
	BRNE __CLEAR_SRAM

;GLOBAL VARIABLES INITIALIZATION
	LDI  R30,LOW(__GLOBAL_INI_TBL*2)
	LDI  R31,HIGH(__GLOBAL_INI_TBL*2)
__GLOBAL_INI_NEXT:
	LPM  R24,Z+
	LPM  R25,Z+
	SBIW R24,0
	BREQ __GLOBAL_INI_END
	LPM  R26,Z+
	LPM  R27,Z+
	LPM  R0,Z+
	LPM  R1,Z+
	MOVW R22,R30
	MOVW R30,R0
__GLOBAL_INI_LOOP:
	LPM  R0,Z+
	ST   X+,R0
	SBIW R24,1
	BRNE __GLOBAL_INI_LOOP
	MOVW R30,R22
	RJMP __GLOBAL_INI_NEXT
__GLOBAL_INI_END:

;HARDWARE STACK POINTER INITIALIZATION
	LDI  R30,LOW(__SRAM_END-__HEAP_SIZE)
	OUT  SPL,R30
	LDI  R30,HIGH(__SRAM_END-__HEAP_SIZE)
	OUT  SPH,R30

;DATA STACK POINTER INITIALIZATION
	LDI  R28,LOW(__SRAM_START+__DSTACK_SIZE)
	LDI  R29,HIGH(__SRAM_START+__DSTACK_SIZE)

	RJMP _main

	.ESEG
	.ORG 0

	.DSEG
	.ORG 0x160

	.CSEG
;#include <mega8.h>
	#ifndef __SLEEP_DEFINED__
	#define __SLEEP_DEFINED__
	.EQU __se_bit=0x80
	.EQU __sm_mask=0x70
	.EQU __sm_powerdown=0x20
	.EQU __sm_powersave=0x30
	.EQU __sm_standby=0x60
	.EQU __sm_ext_standby=0x70
	.EQU __sm_adc_noise_red=0x10
	.SET power_ctrl_reg=mcucr
	#endif
;#include <delay.h>
;#include <delay.h>
;#include <1wire.h>
;#include <ds18b20.h>
;
;#define _soft_data  PORTC.1
;#define _soft_shift PORTC.0
;#define _soft_latch PORTC.2
;
;#define MAX7219_MODE_DECODE       0x09
;#define MAX7219_MODE_INTENSITY    0x0A
;#define MAX7219_MODE_SCAN_LIMIT   0x0B
;#define MAX7219_MODE_POWER        0x0C
;#define MAX7219_MODE_TEST         0x0F
;#define MAX7219_MODE_NOOP         0x00
;
;#define Button_plus PINB.1
;#define Button_minus PINB.2
;#define RELE PORTD.0
;
;int gisteresis = 1; //  гістерезис термостату.
;eeprom int dtemper = 25;
;int temper = 0;
;
;
;void write(char data, char adress)
; 0000 001C {

	.CSEG
_write:
; .FSTART _write
; 0000 001D        unsigned char i;
; 0000 001E        //опускаем CS
; 0000 001F        _soft_latch=0;
	ST   -Y,R26
	ST   -Y,R17
;	data -> Y+2
;	adress -> Y+1
;	i -> R17
	CBI  0x15,2
; 0000 0020        #asm("nop") //latch
	nop
; 0000 0021 
; 0000 0022        //задвигаем адрес
; 0000 0023        for(i=0;i<8;i++)
	LDI  R17,LOW(0)
_0x6:
	CPI  R17,8
	BRSH _0x7
; 0000 0024        {
; 0000 0025        if(adress & 0x80)
	LDD  R30,Y+1
	ANDI R30,LOW(0x80)
	BREQ _0x8
; 0000 0026        {
; 0000 0027        _soft_data = 1;
	SBI  0x15,1
; 0000 0028        }
; 0000 0029        else
	RJMP _0xB
_0x8:
; 0000 002A        {
; 0000 002B        _soft_data = 0;
	CBI  0x15,1
; 0000 002C        }
_0xB:
; 0000 002D          #asm("nop") //shift
	nop
; 0000 002E          _soft_shift=1;
	SBI  0x15,0
; 0000 002F          #asm("nop")
	nop
; 0000 0030          _soft_shift=0;
	CBI  0x15,0
; 0000 0031          adress <<= 1;
	LDD  R30,Y+1
	LSL  R30
	STD  Y+1,R30
; 0000 0032        }
	SUBI R17,-1
	RJMP _0x6
_0x7:
; 0000 0033 
; 0000 0034        //задвигаем данные
; 0000 0035        for(i=0;i<8;i++)
	LDI  R17,LOW(0)
_0x13:
	CPI  R17,8
	BRSH _0x14
; 0000 0036        {
; 0000 0037        if(data & 0x80)
	LDD  R30,Y+2
	ANDI R30,LOW(0x80)
	BREQ _0x15
; 0000 0038        {
; 0000 0039        _soft_data = 1;
	SBI  0x15,1
; 0000 003A        }
; 0000 003B        else
	RJMP _0x18
_0x15:
; 0000 003C        {
; 0000 003D        _soft_data = 0;
	CBI  0x15,1
; 0000 003E        }
_0x18:
; 0000 003F          #asm("nop") //shift
	nop
; 0000 0040          _soft_shift=1;
	SBI  0x15,0
; 0000 0041          #asm("nop")
	nop
; 0000 0042          _soft_shift=0;
	CBI  0x15,0
; 0000 0043          data <<= 1;
	LDD  R30,Y+2
	LSL  R30
	STD  Y+2,R30
; 0000 0044       }
	SUBI R17,-1
	RJMP _0x13
_0x14:
; 0000 0045        _soft_latch=1;
	SBI  0x15,2
; 0000 0046 }
	RJMP _0x2020002
; .FEND
;
;
; void print_val(int a)
; 0000 004A  {
_print_val:
; .FSTART _print_val
; 0000 004B     char R_1 = 0;
; 0000 004C     char R_2 = 0;
; 0000 004D     char R_3 = 0;
; 0000 004E 
; 0000 004F     R_1 = a / 100;
	RCALL SUBOPT_0x0
	RCALL __SAVELOCR4
;	a -> Y+4
;	R_1 -> R17
;	R_2 -> R16
;	R_3 -> R19
	LDI  R17,0
	LDI  R16,0
	LDI  R19,0
	RCALL SUBOPT_0x1
	LDI  R30,LOW(100)
	LDI  R31,HIGH(100)
	RCALL __DIVW21
	MOV  R17,R30
; 0000 0050     R_2 = (a - R_1 * 100) / 10;
	RCALL SUBOPT_0x2
	RCALL __DIVW21
	MOV  R16,R30
; 0000 0051     R_3 = (a - R_1 * 100) % 10;
	RCALL SUBOPT_0x2
	RCALL __MODW21
	MOV  R19,R30
; 0000 0052 
; 0000 0053     write(R_1, 0x01);
	ST   -Y,R17
	LDI  R26,LOW(1)
	RCALL _write
; 0000 0054     write(R_2, 0x02);
	ST   -Y,R16
	LDI  R26,LOW(2)
	RCALL _write
; 0000 0055     write(R_3, 0x03);
	ST   -Y,R19
	LDI  R26,LOW(3)
	RCALL _write
; 0000 0056 
; 0000 0057  }
	RJMP _0x2020003
; .FEND
;void main(void)
; 0000 0059 {
_main:
; .FSTART _main
; 0000 005A 
; 0000 005B  DDRC = 0xFF;
	LDI  R30,LOW(255)
	OUT  0x14,R30
; 0000 005C  DDRB=(0<<DDB2) | (0<<DDB1) | (0<<DDB0); // входи датчика температури DS18B20 і кнопок.
	LDI  R30,LOW(0)
	OUT  0x17,R30
; 0000 005D  PORTB |= (1<<1) | (1<<2);
	IN   R30,0x18
	ORI  R30,LOW(0x6)
	OUT  0x18,R30
; 0000 005E  DDRD = 0xFF;  // вихід на реле
	LDI  R30,LOW(255)
	OUT  0x11,R30
; 0000 005F 
; 0000 0060  w1_init();
	RCALL _w1_init
; 0000 0061  ds18b20_init(0,0,120,0);
	LDI  R30,LOW(0)
	LDI  R31,HIGH(0)
	ST   -Y,R31
	ST   -Y,R30
	ST   -Y,R30
	LDI  R30,LOW(120)
	ST   -Y,R30
	LDI  R26,LOW(0)
	RCALL _ds18b20_init
; 0000 0062 
; 0000 0063  write(1, MAX7219_MODE_POWER);
	LDI  R30,LOW(1)
	ST   -Y,R30
	LDI  R26,LOW(12)
	RCALL _write
; 0000 0064  write(0xFF, MAX7219_MODE_DECODE);
	LDI  R30,LOW(255)
	ST   -Y,R30
	LDI  R26,LOW(9)
	RCALL _write
; 0000 0065  write(0x02, MAX7219_MODE_SCAN_LIMIT);
	LDI  R30,LOW(2)
	ST   -Y,R30
	LDI  R26,LOW(11)
	RCALL _write
; 0000 0066  write(0x03, MAX7219_MODE_INTENSITY);
	LDI  R30,LOW(3)
	ST   -Y,R30
	LDI  R26,LOW(10)
	RCALL _write
; 0000 0067  write(0x00, MAX7219_MODE_TEST);
	LDI  R30,LOW(0)
	ST   -Y,R30
	LDI  R26,LOW(15)
	RCALL _write
; 0000 0068 
; 0000 0069 
; 0000 006A 
; 0000 006B 
; 0000 006C 
; 0000 006D 
; 0000 006E 
; 0000 006F while (1)
_0x21:
; 0000 0070     {
; 0000 0071      temper = ds18b20_temperature(0);
	LDI  R26,LOW(0)
	LDI  R27,0
	RCALL _ds18b20_temperature
	RCALL __CFD1
	MOVW R6,R30
; 0000 0072      print_val(temper);
	MOVW R26,R6
	RCALL _print_val
; 0000 0073 
; 0000 0074      if(Button_plus == 0)
	SBIC 0x16,1
	RJMP _0x24
; 0000 0075      {
; 0000 0076       dtemper++;
	RCALL SUBOPT_0x3
	ADIW R30,1
	RCALL __EEPROMWRW
; 0000 0077       print_val(dtemper);
	RCALL SUBOPT_0x3
	RCALL SUBOPT_0x4
; 0000 0078       delay_ms(1000);
; 0000 0079      }
; 0000 007A      if(Button_minus == 0)
_0x24:
	SBIC 0x16,2
	RJMP _0x25
; 0000 007B      {
; 0000 007C       dtemper--;
	RCALL SUBOPT_0x3
	SBIW R30,1
	RCALL __EEPROMWRW
; 0000 007D       print_val(dtemper);
	RCALL SUBOPT_0x3
	RCALL SUBOPT_0x4
; 0000 007E       delay_ms(1000);
; 0000 007F      }
; 0000 0080 
; 0000 0081       if(temper >= dtemper)
_0x25:
	RCALL SUBOPT_0x3
	CP   R6,R30
	CPC  R7,R31
	BRLT _0x26
; 0000 0082       {
; 0000 0083        RELE = 0;}
	CBI  0x12,0
; 0000 0084       else if(temper <= dtemper - gisteresis)
	RJMP _0x29
_0x26:
	RCALL SUBOPT_0x3
	SUB  R30,R4
	SBC  R31,R5
	CP   R30,R6
	CPC  R31,R7
	BRLT _0x2A
; 0000 0085       {
; 0000 0086        RELE = 1;}
	SBI  0x12,0
; 0000 0087 
; 0000 0088      delay_ms(10);
_0x2A:
_0x29:
	LDI  R26,LOW(10)
	LDI  R27,0
	RCALL _delay_ms
; 0000 0089     }
	RJMP _0x21
; 0000 008A }
_0x2D:
	RJMP _0x2D
; .FEND

	.CSEG
_ds18b20_select:
; .FSTART _ds18b20_select
	RCALL SUBOPT_0x0
	ST   -Y,R17
	RCALL _w1_init
	CPI  R30,0
	BRNE _0x2000003
	LDI  R30,LOW(0)
	RJMP _0x2020002
_0x2000003:
	LDD  R30,Y+1
	LDD  R31,Y+1+1
	SBIW R30,0
	BREQ _0x2000004
	LDI  R26,LOW(85)
	RCALL _w1_write
	LDI  R17,LOW(0)
_0x2000006:
	RCALL SUBOPT_0x5
	LD   R30,X+
	STD  Y+1,R26
	STD  Y+1+1,R27
	MOV  R26,R30
	RCALL _w1_write
	SUBI R17,-LOW(1)
	CPI  R17,8
	BRLO _0x2000006
	RJMP _0x2000008
_0x2000004:
	LDI  R26,LOW(204)
	RCALL _w1_write
_0x2000008:
	LDI  R30,LOW(1)
	RJMP _0x2020002
; .FEND
_ds18b20_read_spd:
; .FSTART _ds18b20_read_spd
	RCALL SUBOPT_0x0
	RCALL __SAVELOCR4
	RCALL SUBOPT_0x1
	RCALL SUBOPT_0x6
	BRNE _0x2000009
	LDI  R30,LOW(0)
	RJMP _0x2020003
_0x2000009:
	LDI  R26,LOW(190)
	RCALL _w1_write
	LDI  R17,LOW(0)
	__POINTWRM 18,19,___ds18b20_scratch_pad
_0x200000B:
	PUSH R19
	PUSH R18
	__ADDWRN 18,19,1
	RCALL _w1_read
	POP  R26
	POP  R27
	ST   X,R30
	SUBI R17,-LOW(1)
	CPI  R17,9
	BRLO _0x200000B
	LDI  R30,LOW(___ds18b20_scratch_pad)
	LDI  R31,HIGH(___ds18b20_scratch_pad)
	ST   -Y,R31
	ST   -Y,R30
	LDI  R26,LOW(9)
	RCALL _w1_dow_crc8
	RCALL __LNEGB1
_0x2020003:
	RCALL __LOADLOCR4
	ADIW R28,6
	RET
; .FEND
_ds18b20_temperature:
; .FSTART _ds18b20_temperature
	RCALL SUBOPT_0x0
	ST   -Y,R17
	RCALL SUBOPT_0x5
	RCALL _ds18b20_read_spd
	CPI  R30,0
	BRNE _0x200000D
	RCALL SUBOPT_0x7
	RJMP _0x2020002
_0x200000D:
	__GETB1MN ___ds18b20_scratch_pad,4
	SWAP R30
	ANDI R30,0xF
	LSR  R30
	ANDI R30,LOW(0x3)
	MOV  R17,R30
	RCALL SUBOPT_0x5
	RCALL SUBOPT_0x6
	BRNE _0x200000E
	RCALL SUBOPT_0x7
	RJMP _0x2020002
_0x200000E:
	LDI  R26,LOW(68)
	RCALL _w1_write
	MOV  R30,R17
	LDI  R26,LOW(_conv_delay_G100*2)
	LDI  R27,HIGH(_conv_delay_G100*2)
	RCALL SUBOPT_0x8
	RCALL __GETW2PF
	RCALL _delay_ms
	RCALL SUBOPT_0x5
	RCALL _ds18b20_read_spd
	CPI  R30,0
	BRNE _0x200000F
	RCALL SUBOPT_0x7
	RJMP _0x2020002
_0x200000F:
	RCALL _w1_init
	MOV  R30,R17
	LDI  R26,LOW(_bit_mask_G100*2)
	LDI  R27,HIGH(_bit_mask_G100*2)
	RCALL SUBOPT_0x8
	RCALL __GETW1PF
	LDS  R26,___ds18b20_scratch_pad
	LDS  R27,___ds18b20_scratch_pad+1
	AND  R30,R26
	AND  R31,R27
	RCALL __CWD1
	RCALL __CDF1
	__GETD2N 0x3D800000
	RCALL __MULF12
_0x2020002:
	LDD  R17,Y+0
	ADIW R28,3
	RET
; .FEND
_ds18b20_init:
; .FSTART _ds18b20_init
	ST   -Y,R26
	LDD  R26,Y+3
	LDD  R27,Y+3+1
	RCALL SUBOPT_0x6
	BRNE _0x2000010
	LDI  R30,LOW(0)
	RJMP _0x2020001
_0x2000010:
	LD   R30,Y
	SWAP R30
	ANDI R30,0xF0
	LSL  R30
	ORI  R30,LOW(0x1F)
	ST   Y,R30
	LDI  R26,LOW(78)
	RCALL _w1_write
	LDD  R26,Y+1
	RCALL _w1_write
	LDD  R26,Y+2
	RCALL _w1_write
	LD   R26,Y
	RCALL _w1_write
	LDD  R26,Y+3
	LDD  R27,Y+3+1
	RCALL _ds18b20_read_spd
	CPI  R30,0
	BRNE _0x2000011
	LDI  R30,LOW(0)
	RJMP _0x2020001
_0x2000011:
	__GETB2MN ___ds18b20_scratch_pad,3
	LDD  R30,Y+2
	CP   R30,R26
	BRNE _0x2000013
	__GETB2MN ___ds18b20_scratch_pad,2
	LDD  R30,Y+1
	CP   R30,R26
	BRNE _0x2000013
	__GETB2MN ___ds18b20_scratch_pad,4
	LD   R30,Y
	CP   R30,R26
	BREQ _0x2000012
_0x2000013:
	LDI  R30,LOW(0)
	RJMP _0x2020001
_0x2000012:
	LDD  R26,Y+3
	LDD  R27,Y+3+1
	RCALL SUBOPT_0x6
	BRNE _0x2000015
	LDI  R30,LOW(0)
	RJMP _0x2020001
_0x2000015:
	LDI  R26,LOW(72)
	RCALL _w1_write
	LDI  R26,LOW(15)
	LDI  R27,0
	RCALL _delay_ms
	RCALL _w1_init
_0x2020001:
	ADIW R28,5
	RET
; .FEND

	.DSEG
___ds18b20_scratch_pad:
	.BYTE 0x9

	.ESEG
_dtemper:
	.DB  0x19,0x0

	.CSEG
;OPTIMIZER ADDED SUBROUTINE, CALLED 4 TIMES, CODE SIZE REDUCTION:1 WORDS
SUBOPT_0x0:
	ST   -Y,R27
	ST   -Y,R26
	RET

;OPTIMIZER ADDED SUBROUTINE, CALLED 4 TIMES, CODE SIZE REDUCTION:1 WORDS
SUBOPT_0x1:
	LDD  R26,Y+4
	LDD  R27,Y+4+1
	RET

;OPTIMIZER ADDED SUBROUTINE, CALLED 2 TIMES, CODE SIZE REDUCTION:5 WORDS
SUBOPT_0x2:
	LDI  R30,LOW(100)
	MUL  R30,R17
	MOVW R30,R0
	RCALL SUBOPT_0x1
	SUB  R26,R30
	SBC  R27,R31
	LDI  R30,LOW(10)
	LDI  R31,HIGH(10)
	RET

;OPTIMIZER ADDED SUBROUTINE, CALLED 6 TIMES, CODE SIZE REDUCTION:8 WORDS
SUBOPT_0x3:
	LDI  R26,LOW(_dtemper)
	LDI  R27,HIGH(_dtemper)
	RCALL __EEPROMRDW
	RET

;OPTIMIZER ADDED SUBROUTINE, CALLED 2 TIMES, CODE SIZE REDUCTION:2 WORDS
SUBOPT_0x4:
	MOVW R26,R30
	RCALL _print_val
	LDI  R26,LOW(1000)
	LDI  R27,HIGH(1000)
	RJMP _delay_ms

;OPTIMIZER ADDED SUBROUTINE, CALLED 4 TIMES, CODE SIZE REDUCTION:1 WORDS
SUBOPT_0x5:
	LDD  R26,Y+1
	LDD  R27,Y+1+1
	RET

;OPTIMIZER ADDED SUBROUTINE, CALLED 4 TIMES, CODE SIZE REDUCTION:1 WORDS
SUBOPT_0x6:
	RCALL _ds18b20_select
	CPI  R30,0
	RET

;OPTIMIZER ADDED SUBROUTINE, CALLED 3 TIMES, CODE SIZE REDUCTION:4 WORDS
SUBOPT_0x7:
	__GETD1N 0xC61C3C00
	RET

;OPTIMIZER ADDED SUBROUTINE, CALLED 2 TIMES, CODE SIZE REDUCTION:2 WORDS
SUBOPT_0x8:
	LDI  R31,0
	LSL  R30
	ROL  R31
	ADD  R30,R26
	ADC  R31,R27
	RET


	.CSEG
_delay_ms:
	adiw r26,0
	breq __delay_ms1
__delay_ms0:
	__DELAY_USW 0x7D0
	wdr
	sbiw r26,1
	brne __delay_ms0
__delay_ms1:
	ret

	.equ __w1_port=0x18
	.equ __w1_bit=0x00

_w1_init:
	clr  r30
	cbi  __w1_port,__w1_bit
	sbi  __w1_port-1,__w1_bit
	__DELAY_USW 0x3C0
	cbi  __w1_port-1,__w1_bit
	__DELAY_USB 0x25
	sbis __w1_port-2,__w1_bit
	ret
	__DELAY_USB 0xCB
	sbis __w1_port-2,__w1_bit
	ldi  r30,1
	__DELAY_USW 0x30C
	ret

__w1_read_bit:
	sbi  __w1_port-1,__w1_bit
	__DELAY_USB 0x5
	cbi  __w1_port-1,__w1_bit
	__DELAY_USB 0x1D
	clc
	sbic __w1_port-2,__w1_bit
	sec
	ror  r30
	__DELAY_USB 0xD5
	ret

__w1_write_bit:
	clt
	sbi  __w1_port-1,__w1_bit
	__DELAY_USB 0x5
	sbrc r23,0
	cbi  __w1_port-1,__w1_bit
	__DELAY_USB 0x23
	sbic __w1_port-2,__w1_bit
	rjmp __w1_write_bit0
	sbrs r23,0
	rjmp __w1_write_bit1
	ret
__w1_write_bit0:
	sbrs r23,0
	ret
__w1_write_bit1:
	__DELAY_USB 0xC8
	cbi  __w1_port-1,__w1_bit
	__DELAY_USB 0xD
	set
	ret

_w1_read:
	ldi  r22,8
	__w1_read0:
	rcall __w1_read_bit
	dec  r22
	brne __w1_read0
	ret

_w1_write:
	mov  r23,r26
	ldi  r22,8
	clr  r30
__w1_write0:
	rcall __w1_write_bit
	brtc __w1_write1
	ror  r23
	dec  r22
	brne __w1_write0
	inc  r30
__w1_write1:
	ret

_w1_dow_crc8:
	clr  r30
	tst  r26
	breq __w1_dow_crc83
	mov  r24,r26
	ldi  r22,0x18
	ld   r26,y
	ldd  r27,y+1
__w1_dow_crc80:
	ldi  r25,8
	ld   r31,x+
__w1_dow_crc81:
	mov  r23,r31
	eor  r23,r30
	ror  r23
	brcc __w1_dow_crc82
	eor  r30,r22
__w1_dow_crc82:
	ror  r30
	lsr  r31
	dec  r25
	brne __w1_dow_crc81
	dec  r24
	brne __w1_dow_crc80
__w1_dow_crc83:
	adiw r28,2
	ret

__ROUND_REPACK:
	TST  R21
	BRPL __REPACK
	CPI  R21,0x80
	BRNE __ROUND_REPACK0
	SBRS R30,0
	RJMP __REPACK
__ROUND_REPACK0:
	ADIW R30,1
	ADC  R22,R25
	ADC  R23,R25
	BRVS __REPACK1

__REPACK:
	LDI  R21,0x80
	EOR  R21,R23
	BRNE __REPACK0
	PUSH R21
	RJMP __ZERORES
__REPACK0:
	CPI  R21,0xFF
	BREQ __REPACK1
	LSL  R22
	LSL  R0
	ROR  R21
	ROR  R22
	MOV  R23,R21
	RET
__REPACK1:
	PUSH R21
	TST  R0
	BRMI __REPACK2
	RJMP __MAXRES
__REPACK2:
	RJMP __MINRES

__UNPACK:
	LDI  R21,0x80
	MOV  R1,R25
	AND  R1,R21
	LSL  R24
	ROL  R25
	EOR  R25,R21
	LSL  R21
	ROR  R24

__UNPACK1:
	LDI  R21,0x80
	MOV  R0,R23
	AND  R0,R21
	LSL  R22
	ROL  R23
	EOR  R23,R21
	LSL  R21
	ROR  R22
	RET

__CFD1U:
	SET
	RJMP __CFD1U0
__CFD1:
	CLT
__CFD1U0:
	PUSH R21
	RCALL __UNPACK1
	CPI  R23,0x80
	BRLO __CFD10
	CPI  R23,0xFF
	BRCC __CFD10
	RJMP __ZERORES
__CFD10:
	LDI  R21,22
	SUB  R21,R23
	BRPL __CFD11
	NEG  R21
	CPI  R21,8
	BRTC __CFD19
	CPI  R21,9
__CFD19:
	BRLO __CFD17
	SER  R30
	SER  R31
	SER  R22
	LDI  R23,0x7F
	BLD  R23,7
	RJMP __CFD15
__CFD17:
	CLR  R23
	TST  R21
	BREQ __CFD15
__CFD18:
	LSL  R30
	ROL  R31
	ROL  R22
	ROL  R23
	DEC  R21
	BRNE __CFD18
	RJMP __CFD15
__CFD11:
	CLR  R23
__CFD12:
	CPI  R21,8
	BRLO __CFD13
	MOV  R30,R31
	MOV  R31,R22
	MOV  R22,R23
	SUBI R21,8
	RJMP __CFD12
__CFD13:
	TST  R21
	BREQ __CFD15
__CFD14:
	LSR  R23
	ROR  R22
	ROR  R31
	ROR  R30
	DEC  R21
	BRNE __CFD14
__CFD15:
	TST  R0
	BRPL __CFD16
	RCALL __ANEGD1
__CFD16:
	POP  R21
	RET

__CDF1U:
	SET
	RJMP __CDF1U0
__CDF1:
	CLT
__CDF1U0:
	SBIW R30,0
	SBCI R22,0
	SBCI R23,0
	BREQ __CDF10
	CLR  R0
	BRTS __CDF11
	TST  R23
	BRPL __CDF11
	COM  R0
	RCALL __ANEGD1
__CDF11:
	MOV  R1,R23
	LDI  R23,30
	TST  R1
__CDF12:
	BRMI __CDF13
	DEC  R23
	LSL  R30
	ROL  R31
	ROL  R22
	ROL  R1
	RJMP __CDF12
__CDF13:
	MOV  R30,R31
	MOV  R31,R22
	MOV  R22,R1
	PUSH R21
	RCALL __REPACK
	POP  R21
__CDF10:
	RET

__ZERORES:
	CLR  R30
	CLR  R31
	CLR  R22
	CLR  R23
	POP  R21
	RET

__MINRES:
	SER  R30
	SER  R31
	LDI  R22,0x7F
	SER  R23
	POP  R21
	RET

__MAXRES:
	SER  R30
	SER  R31
	LDI  R22,0x7F
	LDI  R23,0x7F
	POP  R21
	RET

__MULF12:
	PUSH R21
	RCALL __UNPACK
	CPI  R23,0x80
	BREQ __ZERORES
	CPI  R25,0x80
	BREQ __ZERORES
	EOR  R0,R1
	SEC
	ADC  R23,R25
	BRVC __MULF124
	BRLT __ZERORES
__MULF125:
	TST  R0
	BRMI __MINRES
	RJMP __MAXRES
__MULF124:
	PUSH R0
	PUSH R17
	PUSH R18
	PUSH R19
	PUSH R20
	CLR  R17
	CLR  R18
	CLR  R25
	MUL  R22,R24
	MOVW R20,R0
	MUL  R24,R31
	MOV  R19,R0
	ADD  R20,R1
	ADC  R21,R25
	MUL  R22,R27
	ADD  R19,R0
	ADC  R20,R1
	ADC  R21,R25
	MUL  R24,R30
	RCALL __MULF126
	MUL  R27,R31
	RCALL __MULF126
	MUL  R22,R26
	RCALL __MULF126
	MUL  R27,R30
	RCALL __MULF127
	MUL  R26,R31
	RCALL __MULF127
	MUL  R26,R30
	ADD  R17,R1
	ADC  R18,R25
	ADC  R19,R25
	ADC  R20,R25
	ADC  R21,R25
	MOV  R30,R19
	MOV  R31,R20
	MOV  R22,R21
	MOV  R21,R18
	POP  R20
	POP  R19
	POP  R18
	POP  R17
	POP  R0
	TST  R22
	BRMI __MULF122
	LSL  R21
	ROL  R30
	ROL  R31
	ROL  R22
	RJMP __MULF123
__MULF122:
	INC  R23
	BRVS __MULF125
__MULF123:
	RCALL __ROUND_REPACK
	POP  R21
	RET

__MULF127:
	ADD  R17,R0
	ADC  R18,R1
	ADC  R19,R25
	RJMP __MULF128
__MULF126:
	ADD  R18,R0
	ADC  R19,R1
__MULF128:
	ADC  R20,R25
	ADC  R21,R25
	RET

__ANEGW1:
	NEG  R31
	NEG  R30
	SBCI R31,0
	RET

__ANEGD1:
	COM  R31
	COM  R22
	COM  R23
	NEG  R30
	SBCI R31,-1
	SBCI R22,-1
	SBCI R23,-1
	RET

__CWD1:
	MOV  R22,R31
	ADD  R22,R22
	SBC  R22,R22
	MOV  R23,R22
	RET

__LNEGB1:
	TST  R30
	LDI  R30,1
	BREQ __LNEGB1F
	CLR  R30
__LNEGB1F:
	RET

__DIVW21U:
	CLR  R0
	CLR  R1
	LDI  R25,16
__DIVW21U1:
	LSL  R26
	ROL  R27
	ROL  R0
	ROL  R1
	SUB  R0,R30
	SBC  R1,R31
	BRCC __DIVW21U2
	ADD  R0,R30
	ADC  R1,R31
	RJMP __DIVW21U3
__DIVW21U2:
	SBR  R26,1
__DIVW21U3:
	DEC  R25
	BRNE __DIVW21U1
	MOVW R30,R26
	MOVW R26,R0
	RET

__DIVW21:
	RCALL __CHKSIGNW
	RCALL __DIVW21U
	BRTC __DIVW211
	RCALL __ANEGW1
__DIVW211:
	RET

__MODW21:
	CLT
	SBRS R27,7
	RJMP __MODW211
	COM  R26
	COM  R27
	ADIW R26,1
	SET
__MODW211:
	SBRC R31,7
	RCALL __ANEGW1
	RCALL __DIVW21U
	MOVW R30,R26
	BRTC __MODW212
	RCALL __ANEGW1
__MODW212:
	RET

__CHKSIGNW:
	CLT
	SBRS R31,7
	RJMP __CHKSW1
	RCALL __ANEGW1
	SET
__CHKSW1:
	SBRS R27,7
	RJMP __CHKSW2
	COM  R26
	COM  R27
	ADIW R26,1
	BLD  R0,0
	INC  R0
	BST  R0,0
__CHKSW2:
	RET

__GETW1PF:
	LPM  R0,Z+
	LPM  R31,Z
	MOV  R30,R0
	RET

__GETW2PF:
	LPM  R26,Z+
	LPM  R27,Z
	RET

__EEPROMRDW:
	ADIW R26,1
	RCALL __EEPROMRDB
	MOV  R31,R30
	SBIW R26,1

__EEPROMRDB:
	SBIC EECR,EEWE
	RJMP __EEPROMRDB
	PUSH R31
	IN   R31,SREG
	CLI
	OUT  EEARL,R26
	OUT  EEARH,R27
	SBI  EECR,EERE
	IN   R30,EEDR
	OUT  SREG,R31
	POP  R31
	RET

__EEPROMWRW:
	RCALL __EEPROMWRB
	ADIW R26,1
	PUSH R30
	MOV  R30,R31
	RCALL __EEPROMWRB
	POP  R30
	SBIW R26,1
	RET

__EEPROMWRB:
	SBIS EECR,EEWE
	RJMP __EEPROMWRB1
	WDR
	RJMP __EEPROMWRB
__EEPROMWRB1:
	IN   R25,SREG
	CLI
	OUT  EEARL,R26
	OUT  EEARH,R27
	SBI  EECR,EERE
	IN   R24,EEDR
	CP   R30,R24
	BREQ __EEPROMWRB0
	OUT  EEDR,R30
	SBI  EECR,EEMWE
	SBI  EECR,EEWE
__EEPROMWRB0:
	OUT  SREG,R25
	RET

__SAVELOCR4:
	ST   -Y,R19
__SAVELOCR3:
	ST   -Y,R18
__SAVELOCR2:
	ST   -Y,R17
	ST   -Y,R16
	RET

__LOADLOCR4:
	LDD  R19,Y+3
__LOADLOCR3:
	LDD  R18,Y+2
__LOADLOCR2:
	LDD  R17,Y+1
	LD   R16,Y
	RET

;END OF CODE MARKER
__END_OF_CODE:
